; Function Attrs: mustprogress nounwind uwtable
define hidden noundef ptr @_ZNK5osgeo4proj9operation10Conversion21getWKT1GDALMethodNameEv(ptr noundef nonnull readonly align 8 dereferenceable(24) %0) local_unnamed_addr #3 align 2 {
  %2 = tail call noundef nonnull align 8 dereferenceable(16) ptr @_ZNK5osgeo4proj9operation15SingleOperation6methodEv(ptr noundef nonnull align 8 dereferenceable(16) %0) #36
  %3 = load ptr, ptr %2, align 8, !tbaa !58
  %4 = tail call noundef i32 @_ZNK5osgeo4proj9operation15OperationMethod11getEPSGCodeEv(ptr noundef nonnull align 8 dereferenceable(56) %3) #36
  %5 = icmp eq i32 %4, 1024
  br i1 %5, label %11, label %6

6:                                                ; preds = %1
  %7 = tail call noundef ptr @_ZN5osgeo4proj9operation10getMappingEPKNS1_15OperationMethodE(ptr noundef nonnull %3) #32
  %.not = icmp eq ptr %7, null
  br i1 %.not, label %11, label %8

8:                                                ; preds = %6
  %9 = getelementptr inbounds nuw i8, ptr %7, i64 16
  %10 = load ptr, ptr %9, align 8, !tbaa !383
  br label %11

11:                                               ; preds = %8, %6, %1
  %.0 = phi ptr [ @.str.39, %1 ], [ %10, %8 ], [ null, %6 ]
  ret ptr %.0
}